; Function Attrs: nounwind uwtable
define ptr @l_Lean_Meta_substCore___lambda__14___boxed(ptr noundef readonly captures(none) %0) #0 {
  %2 = load ptr, ptr %0, align 8, !tbaa !11
  %3 = getelementptr inbounds nuw i8, ptr %0, i64 8
  %4 = load ptr, ptr %3, align 8, !tbaa !11
  %5 = getelementptr inbounds nuw i8, ptr %0, i64 16
  %6 = load ptr, ptr %5, align 8, !tbaa !11
  %7 = getelementptr inbounds nuw i8, ptr %0, i64 24
  %8 = load ptr, ptr %7, align 8, !tbaa !11
  %9 = getelementptr inbounds nuw i8, ptr %0, i64 32
  %10 = load ptr, ptr %9, align 8, !tbaa !11
  %11 = getelementptr inbounds nuw i8, ptr %0, i64 40
  %12 = load ptr, ptr %11, align 8, !tbaa !11
  %13 = getelementptr inbounds nuw i8, ptr %0, i64 48
  %14 = load ptr, ptr %13, align 8, !tbaa !11
  %15 = getelementptr inbounds nuw i8, ptr %0, i64 56
  %16 = load ptr, ptr %15, align 8, !tbaa !11
  %17 = getelementptr inbounds nuw i8, ptr %0, i64 64
  %18 = load ptr, ptr %17, align 8, !tbaa !11
  %19 = getelementptr inbounds nuw i8, ptr %0, i64 72
  %20 = load ptr, ptr %19, align 8, !tbaa !11
  %21 = getelementptr inbounds nuw i8, ptr %0, i64 80
  %22 = load ptr, ptr %21, align 8, !tbaa !11
  %23 = getelementptr inbounds nuw i8, ptr %0, i64 88
  %24 = load ptr, ptr %23, align 8, !tbaa !11
  %25 = getelementptr inbounds nuw i8, ptr %0, i64 96
  %26 = load ptr, ptr %25, align 8, !tbaa !11
  %27 = getelementptr inbounds nuw i8, ptr %0, i64 104
  %28 = load ptr, ptr %27, align 8, !tbaa !11
  %29 = getelementptr inbounds nuw i8, ptr %0, i64 112
  %30 = load ptr, ptr %29, align 8, !tbaa !11
  %31 = getelementptr inbounds nuw i8, ptr %0, i64 120
  %32 = load ptr, ptr %31, align 8, !tbaa !11
  %33 = getelementptr inbounds nuw i8, ptr %0, i64 128
  %34 = load ptr, ptr %33, align 8, !tbaa !11
  %35 = getelementptr inbounds nuw i8, ptr %0, i64 136
  %36 = load ptr, ptr %35, align 8, !tbaa !11
  %37 = getelementptr inbounds nuw i8, ptr %0, i64 144
  %38 = load ptr, ptr %37, align 8, !tbaa !11
  %39 = ptrtoint ptr %18 to i64
  %40 = lshr i64 %39, 1
  %41 = trunc i64 %40 to i8
  %42 = and i64 %39, 1
  %.not = icmp eq i64 %42, 0
  br i1 %.not, label %43, label %lean_dec.exit44

43:                                               ; preds = %1
  %44 = load i32, ptr %18, align 4, !tbaa !5
  %45 = icmp sgt i32 %44, 1
  br i1 %45, label %46, label %48, !prof !10

46:                                               ; preds = %43
  %47 = add nsw i32 %44, -1
  store i32 %47, ptr %18, align 4, !tbaa !5
  br label %lean_dec.exit44

48:                                               ; preds = %43
  %.not.i = icmp eq i32 %44, 0
  br i1 %.not.i, label %lean_dec.exit44, label %49

49:                                               ; preds = %48
  tail call void @lean_dec_ref_cold(ptr noundef nonnull %18) #4
  br label %lean_dec.exit44

lean_dec.exit44:                                  ; preds = %49, %48, %46, %1
  %50 = ptrtoint ptr %28 to i64
  %51 = lshr i64 %50, 1
  %52 = trunc i64 %51 to i8
  %53 = and i64 %50, 1
  %.not49 = icmp eq i64 %53, 0
  br i1 %.not49, label %54, label %lean_dec.exit43

54:                                               ; preds = %lean_dec.exit44
  %55 = load i32, ptr %28, align 4, !tbaa !5
  %56 = icmp sgt i32 %55, 1
  br i1 %56, label %57, label %59, !prof !10

57:                                               ; preds = %54
  %58 = add nsw i32 %55, -1
  store i32 %58, ptr %28, align 4, !tbaa !5
  br label %lean_dec.exit43

59:                                               ; preds = %54
  %.not.i45 = icmp eq i32 %55, 0
  br i1 %.not.i45, label %lean_dec.exit43, label %60

60:                                               ; preds = %59
  tail call void @lean_dec_ref_cold(ptr noundef nonnull %28) #4
  br label %lean_dec.exit43

lean_dec.exit43:                                  ; preds = %60, %59, %57, %lean_dec.exit44
  %61 = tail call ptr @l_Lean_Meta_substCore___lambda__14(ptr noundef %2, ptr noundef %4, ptr noundef %6, ptr noundef %8, ptr noundef %10, ptr noundef %12, ptr noundef %14, ptr noundef %16, i8 noundef zeroext %41, ptr noundef %20, ptr noundef %22, ptr noundef %24, ptr noundef %26, i8 noundef zeroext %52, ptr noundef %30, ptr noundef %32, ptr noundef %34, ptr noundef %36, ptr noundef %38)
  %62 = ptrtoint ptr %12 to i64
  %63 = and i64 %62, 1
  %.not50 = icmp eq i64 %63, 0
  br i1 %.not50, label %64, label %lean_dec.exit

64:                                               ; preds = %lean_dec.exit43
  %65 = load i32, ptr %12, align 4, !tbaa !5
  %66 = icmp sgt i32 %65, 1
  br i1 %66, label %67, label %69, !prof !10

67:                                               ; preds = %64
  %68 = add nsw i32 %65, -1
  store i32 %68, ptr %12, align 4, !tbaa !5
  br label %lean_dec.exit

69:                                               ; preds = %64
  %.not.i47 = icmp eq i32 %65, 0
  br i1 %.not.i47, label %lean_dec.exit, label %70

70:                                               ; preds = %69
  tail call void @lean_dec_ref_cold(ptr noundef nonnull %12) #4
  br label %lean_dec.exit

lean_dec.exit:                                    ; preds = %70, %69, %67, %lean_dec.exit43
  ret ptr %61
}